; Function Attrs: mustprogress uwtable
define noundef nonnull align 8 dereferenceable(24) ptr @_ZNK5arrow11StructArray6fieldsEv(ptr noundef nonnull readonly align 8 dereferenceable(56) %this) local_unnamed_addr #0 align 2 {
entry:
  %data_.i = getelementptr inbounds i8, ptr %this, i64 8
  %0 = load ptr, ptr %data_.i, align 8
  %child_data.i3 = getelementptr inbounds i8, ptr %0, i64 64
  %_M_finish.i.i4 = getelementptr inbounds i8, ptr %0, i64 72
  %1 = load ptr, ptr %_M_finish.i.i4, align 8
  %2 = load ptr, ptr %child_data.i3, align 8
  %sub.ptr.lhs.cast.i.i5 = ptrtoint ptr %1 to i64
  %sub.ptr.rhs.cast.i.i6 = ptrtoint ptr %2 to i64
  %sub.ptr.sub.i.i7 = sub i64 %sub.ptr.lhs.cast.i.i5, %sub.ptr.rhs.cast.i.i6
  %sub.ptr.div.i.i8 = lshr exact i64 %sub.ptr.sub.i.i7, 4
  %conv.i9 = trunc i64 %sub.ptr.div.i.i8 to i32
  %cmp10 = icmp sgt i32 %conv.i9, 0
  br i1 %cmp10, label %for.body, label %for.end

for.body:                                         ; preds = %entry, %for.body
  %i.011 = phi i32 [ %inc, %for.body ], [ 0, %entry ]
  %call2 = tail call noundef nonnull align 8 dereferenceable(16) ptr @_ZNK5arrow11StructArray5fieldEi(ptr noundef nonnull align 8 dereferenceable(56) %this, i32 noundef %i.011)
  %inc = add nuw nsw i32 %i.011, 1
  %3 = load ptr, ptr %data_.i, align 8
  %child_data.i = getelementptr inbounds i8, ptr %3, i64 64
  %_M_finish.i.i = getelementptr inbounds i8, ptr %3, i64 72
  %4 = load ptr, ptr %_M_finish.i.i, align 8
  %5 = load ptr, ptr %child_data.i, align 8
  %sub.ptr.lhs.cast.i.i = ptrtoint ptr %4 to i64
  %sub.ptr.rhs.cast.i.i = ptrtoint ptr %5 to i64
  %sub.ptr.sub.i.i = sub i64 %sub.ptr.lhs.cast.i.i, %sub.ptr.rhs.cast.i.i
  %sub.ptr.div.i.i = lshr exact i64 %sub.ptr.sub.i.i, 4
  %conv.i = trunc i64 %sub.ptr.div.i.i to i32
  %cmp = icmp slt i32 %inc, %conv.i
  br i1 %cmp, label %for.body, label %for.end, !llvm.loop !380

for.end:                                          ; preds = %for.body, %entry
  %boxed_fields_ = getelementptr inbounds i8, ptr %this, i64 32
  ret ptr %boxed_fields_
}